target datalayout = "e-m:e-p270:32:32-p271:32:32-p272:64:64-i64:64-i128:128-f80:128-n8:16:32:64-S128"
target triple = "x86_64-unknown-linux-gnu"

%struct.QEMUTimerListGroup = type { [4 x ptr] }
%struct.QEMUTimerList = type { ptr, %struct.QemuMutex, ptr, %struct.anon, ptr, ptr, %struct.QemuEvent }
%struct.QemuMutex = type { %union.pthread_mutex_t, i8 }
%union.pthread_mutex_t = type { %struct.__pthread_mutex_s }
%struct.__pthread_mutex_s = type { i32, i32, i32, i32, i32, i16, i16, %struct.__pthread_internal_list }
%struct.__pthread_internal_list = type { ptr, ptr }
%struct.anon = type { ptr, ptr }
%struct.QemuEvent = type { i32, i8 }

@.str = private unnamed_addr constant [34 x i8] c"!timerlist_has_timers(timer_list)\00", align 1
@.str.1 = private unnamed_addr constant [26 x i8] c"../qemu/util/qemu-timer.c\00", align 1
@__PRETTY_FUNCTION__.timerlist_free = private unnamed_addr constant [37 x i8] c"void timerlist_free(QEMUTimerList *)\00", align 1
@__func__.timerlist_has_timers = private unnamed_addr constant [21 x i8] c"timerlist_has_timers\00", align 1

; Function Attrs: nounwind sspstrong uwtable
define dso_local zeroext i1 @timerlist_has_timers(ptr noundef %timer_list) #0 {
entry:
  %timer_list.addr = alloca ptr, align 8
  %tmp = alloca ptr, align 8
  %atomic-temp = alloca ptr, align 8
  store ptr %timer_list, ptr %timer_list.addr, align 8
  br label %while.cond

while.cond:                                       ; preds = %do.end, %entry
  br i1 false, label %while.body, label %while.end

while.body:                                       ; preds = %while.cond
  br label %do.body

do.body:                                          ; preds = %while.body
  call void @g_assertion_message_expr(ptr noundef null, ptr noundef @.str.1, i32 noundef 174, ptr noundef @__func__.timerlist_has_timers, ptr noundef null) #8
  unreachable

do.end:                                           ; No predecessors!
  br label %while.cond

while.end:                                        ; preds = %while.cond
  %0 = load ptr, ptr %timer_list.addr, align 8
  %active_timers = getelementptr inbounds %struct.QEMUTimerList, ptr %0, i32 0, i32 2
  %1 = load atomic i64, ptr %active_timers monotonic, align 8
  store i64 %1, ptr %atomic-temp, align 8
  %2 = load ptr, ptr %atomic-temp, align 8
  store ptr %2, ptr %tmp, align 8
  %3 = load ptr, ptr %tmp, align 8
  %tobool = icmp ne ptr %3, null
  %lnot = xor i1 %tobool, true
  %lnot1 = xor i1 %lnot, true
  ret i1 %lnot1
}

; Function Attrs: nounwind sspstrong uwtable
define dso_local void @timerlist_free(ptr noundef %timer_list) #0 {
entry:
  %timer_list.addr = alloca ptr, align 8
  store ptr %timer_list, ptr %timer_list.addr, align 8
  %0 = load ptr, ptr %timer_list.addr, align 8
  %call = call zeroext i1 @timerlist_has_timers(ptr noundef %0)
  br i1 %call, label %if.else, label %if.then

if.then:                                          ; preds = %entry
  br label %if.end

if.else:                                          ; preds = %entry
  call void @__assert_fail(ptr noundef @.str, ptr noundef @.str.1, i32 noundef 115, ptr noundef @__PRETTY_FUNCTION__.timerlist_free) #7
  unreachable

if.end:                                           ; preds = %if.then
  %1 = load ptr, ptr %timer_list.addr, align 8
  %clock = getelementptr inbounds %struct.QEMUTimerList, ptr %1, i32 0, i32 0
  %2 = load ptr, ptr %clock, align 8
  %tobool = icmp ne ptr %2, null
  br i1 %tobool, label %if.then1, label %if.end17

if.then1:                                         ; preds = %if.end
  br label %do.body

do.body:                                          ; preds = %if.then1
  %3 = load ptr, ptr %timer_list.addr, align 8
  %list = getelementptr inbounds %struct.QEMUTimerList, ptr %3, i32 0, i32 3
  %le_next = getelementptr inbounds %struct.anon, ptr %list, i32 0, i32 0
  %4 = load ptr, ptr %le_next, align 8
  %cmp = icmp ne ptr %4, null
  br i1 %cmp, label %if.then2, label %if.end8

if.then2:                                         ; preds = %do.body
  %5 = load ptr, ptr %timer_list.addr, align 8
  %list3 = getelementptr inbounds %struct.QEMUTimerList, ptr %5, i32 0, i32 3
  %le_prev = getelementptr inbounds %struct.anon, ptr %list3, i32 0, i32 1
  %6 = load ptr, ptr %le_prev, align 8
  %7 = load ptr, ptr %timer_list.addr, align 8
  %list4 = getelementptr inbounds %struct.QEMUTimerList, ptr %7, i32 0, i32 3
  %le_next5 = getelementptr inbounds %struct.anon, ptr %list4, i32 0, i32 0
  %8 = load ptr, ptr %le_next5, align 8
  %list6 = getelementptr inbounds %struct.QEMUTimerList, ptr %8, i32 0, i32 3
  %le_prev7 = getelementptr inbounds %struct.anon, ptr %list6, i32 0, i32 1
  store ptr %6, ptr %le_prev7, align 8
  br label %if.end8

if.end8:                                          ; preds = %if.then2, %do.body
  %9 = load ptr, ptr %timer_list.addr, align 8
  %list9 = getelementptr inbounds %struct.QEMUTimerList, ptr %9, i32 0, i32 3
  %le_next10 = getelementptr inbounds %struct.anon, ptr %list9, i32 0, i32 0
  %10 = load ptr, ptr %le_next10, align 8
  %11 = load ptr, ptr %timer_list.addr, align 8
  %list11 = getelementptr inbounds %struct.QEMUTimerList, ptr %11, i32 0, i32 3
  %le_prev12 = getelementptr inbounds %struct.anon, ptr %list11, i32 0, i32 1
  %12 = load ptr, ptr %le_prev12, align 8
  store ptr %10, ptr %12, align 8
  %13 = load ptr, ptr %timer_list.addr, align 8
  %list13 = getelementptr inbounds %struct.QEMUTimerList, ptr %13, i32 0, i32 3
  %le_next14 = getelementptr inbounds %struct.anon, ptr %list13, i32 0, i32 0
  store ptr null, ptr %le_next14, align 8
  %14 = load ptr, ptr %timer_list.addr, align 8
  %list15 = getelementptr inbounds %struct.QEMUTimerList, ptr %14, i32 0, i32 3
  %le_prev16 = getelementptr inbounds %struct.anon, ptr %list15, i32 0, i32 1
  store ptr null, ptr %le_prev16, align 8
  br label %do.end

do.end:                                           ; preds = %if.end8
  br label %if.end17

if.end17:                                         ; preds = %do.end, %if.end
  %15 = load ptr, ptr %timer_list.addr, align 8
  %active_timers_lock = getelementptr inbounds %struct.QEMUTimerList, ptr %15, i32 0, i32 1
  call void @qemu_mutex_destroy(ptr noundef %active_timers_lock)
  %16 = load ptr, ptr %timer_list.addr, align 8
  call void @g_free(ptr noundef %16)
  ret void
}

; Function Attrs: nounwind sspstrong uwtable
define dso_local void @timerlistgroup_deinit(ptr noundef %tlg) #0 {
entry:
  %tlg.addr = alloca ptr, align 8
  %type = alloca i32, align 4
  store ptr %tlg, ptr %tlg.addr, align 8
  store i32 0, ptr %type, align 4
  br label %for.cond

for.cond:                                         ; preds = %for.inc, %entry
  %0 = load i32, ptr %type, align 4
  %cmp = icmp ult i32 %0, 4
  br i1 %cmp, label %for.body, label %for.end

for.body:                                         ; preds = %for.cond
  %1 = load ptr, ptr %tlg.addr, align 8
  %tl = getelementptr inbounds %struct.QEMUTimerListGroup, ptr %1, i32 0, i32 0
  %2 = load i32, ptr %type, align 4
  %idxprom = zext i32 %2 to i64
  %arrayidx = getelementptr [4 x ptr], ptr %tl, i64 0, i64 %idxprom
  %3 = load ptr, ptr %arrayidx, align 8
  call void @timerlist_free(ptr noundef %3)
  br label %for.inc

for.inc:                                          ; preds = %for.body
  %4 = load i32, ptr %type, align 4
  %inc = add i32 %4, 1
  store i32 %inc, ptr %type, align 4
  br label %for.cond, !llvm.loop !15

for.end:                                          ; preds = %for.cond
  ret void
}