; Function Attrs: nounwind sspstrong uwtable
define dso_local void @timerlistgroup_deinit(ptr noundef readonly captures(none) %tlg) local_unnamed_addr #0 {
entry:
  br label %for.body

for.body:                                         ; preds = %entry, %timerlist_free.exit
  %indvars.iv = phi i64 [ 0, %entry ], [ %indvars.iv.next, %timerlist_free.exit ]
  %arrayidx = getelementptr [4 x ptr], ptr %tlg, i64 0, i64 %indvars.iv
  %0 = load ptr, ptr %arrayidx, align 8
  %active_timers.i.i = getelementptr inbounds nuw i8, ptr %0, i64 56
  %1 = load atomic i64, ptr %active_timers.i.i monotonic, align 8
  %tobool.i.not.i = icmp eq i64 %1, 0
  br i1 %tobool.i.not.i, label %if.end.i, label %if.else.i

if.else.i:                                        ; preds = %for.body
  tail call void @__assert_fail(ptr noundef nonnull @.str, ptr noundef nonnull @.str.1, i32 noundef 115, ptr noundef nonnull @__PRETTY_FUNCTION__.timerlist_free) #18
  unreachable

if.end.i:                                         ; preds = %for.body
  %2 = load ptr, ptr %0, align 8
  %tobool.not.i = icmp eq ptr %2, null
  br i1 %tobool.not.i, label %timerlist_free.exit, label %do.body.i

do.body.i:                                        ; preds = %if.end.i
  %list.i = getelementptr inbounds nuw i8, ptr %0, i64 64
  %3 = load ptr, ptr %list.i, align 8
  %cmp.not.i = icmp eq ptr %3, null
  %le_prev12.phi.trans.insert.i = getelementptr inbounds nuw i8, ptr %0, i64 72
  %.pre11.i = load ptr, ptr %le_prev12.phi.trans.insert.i, align 8
  br i1 %cmp.not.i, label %if.end8.i, label %if.then2.i

if.then2.i:                                       ; preds = %do.body.i
  %le_prev7.i = getelementptr inbounds nuw i8, ptr %3, i64 72
  store ptr %.pre11.i, ptr %le_prev7.i, align 8
  %.pre.i = load ptr, ptr %list.i, align 8
  br label %if.end8.i

if.end8.i:                                        ; preds = %if.then2.i, %do.body.i
  %4 = phi ptr [ %.pre.i, %if.then2.i ], [ null, %do.body.i ]
  store ptr %4, ptr %.pre11.i, align 8
  tail call void @llvm.memset.p0.i64(ptr noundef nonnull align 8 dereferenceable(16) %list.i, i8 0, i64 16, i1 false)
  br label %timerlist_free.exit

timerlist_free.exit:                              ; preds = %if.end.i, %if.end8.i
  %active_timers_lock.i = getelementptr inbounds nuw i8, ptr %0, i64 8
  tail call void @qemu_mutex_destroy(ptr noundef nonnull %active_timers_lock.i) #17
  tail call void @g_free(ptr noundef nonnull %0) #17
  %indvars.iv.next = add nuw nsw i64 %indvars.iv, 1
  %exitcond.not = icmp eq i64 %indvars.iv.next, 4
  br i1 %exitcond.not, label %for.end, label %for.body, !llvm.loop !12

for.end:                                          ; preds = %timerlist_free.exit
  ret void
}